target datalayout = "e-m:e-p270:32:32-p271:32:32-p272:64:64-i64:64-i128:128-f80:128-n8:16:32:64-S128"
target triple = "x86_64-pc-linux-gnu"

%struct.FunctionCallInfoBaseData = type { ptr, ptr, ptr, i32, i8, i16, [0 x %struct.NullableDatum] }
%struct.NullableDatum = type { i64, i8 }
%struct.nameData = type { [64 x i8] }
%struct.RelFileLocator = type { i32, i32, i32 }
%struct.FormData_pg_class = type { i32, %struct.nameData, i32, i32, i32, i32, i32, i32, i32, i32, float, i32, i32, i8, i8, i8, i8, i16, i16, i8, i8, i8, i8, i8, i8, i8, i8, i32, i32, i32 }
%struct.HeapTupleData = type { i32, %struct.ItemPointerData, i32, ptr }
%struct.ItemPointerData = type { %struct.BlockIdData, i16 }
%struct.BlockIdData = type { i16, i16 }
%struct.HeapTupleHeaderData = type { %union.anon, %struct.ItemPointerData, i16, i16, i8, [0 x i8] }
%union.anon = type { %struct.HeapTupleFields }
%struct.HeapTupleFields = type { i32, i32, %union.anon.1 }
%union.anon.1 = type { i32 }

@.str.1 = private unnamed_addr constant [9 x i8] c"dbsize.c\00", align 1
@MyDatabaseTableSpace = external global i32, align 4
@MyDatabaseId = external global i32, align 4
@ParallelLeaderProcNumber = external global i32, align 4
@MyProcNumber = external global i32, align 4
@.str.8 = private unnamed_addr constant [27 x i8] c"invalid relpersistence: %c\00", align 1
@__func__.pg_relation_filepath = private unnamed_addr constant [21 x i8] c"pg_relation_filepath\00", align 1

; Function Attrs: inlinehint nounwind uwtable
define internal i64 @PointerGetDatum(ptr noundef %0) #2 {
  %2 = alloca ptr, align 8
  store ptr %0, ptr %2, align 8
  %3 = load ptr, ptr %2, align 8
  %4 = ptrtoint ptr %3 to i64
  ret i64 %4
}

; Function Attrs: inlinehint nounwind uwtable
define internal ptr @GETSTRUCT(ptr noundef %0) #2 {
  %2 = alloca ptr, align 8
  store ptr %0, ptr %2, align 8
  %3 = load ptr, ptr %2, align 8
  %4 = getelementptr inbounds nuw %struct.HeapTupleData, ptr %3, i32 0, i32 3
  %5 = load ptr, ptr %4, align 8
  %6 = load ptr, ptr %2, align 8
  %7 = getelementptr inbounds nuw %struct.HeapTupleData, ptr %6, i32 0, i32 3
  %8 = load ptr, ptr %7, align 8
  %9 = getelementptr inbounds nuw %struct.HeapTupleHeaderData, ptr %8, i32 0, i32 4
  %10 = load i8, ptr %9, align 2
  %11 = zext i8 %10 to i32
  %12 = sext i32 %11 to i64
  %13 = getelementptr inbounds i8, ptr %5, i64 %12
  ret ptr %13
}

; Function Attrs: inlinehint nounwind uwtable
define internal i64 @ObjectIdGetDatum(i32 noundef %0) #2 {
  %2 = alloca i32, align 4
  store i32 %0, ptr %2, align 4
  %3 = load i32, ptr %2, align 4
  %4 = zext i32 %3 to i64
  ret i64 %4
}

; Function Attrs: inlinehint nounwind uwtable
define internal i32 @DatumGetObjectId(i64 noundef %0) #2 {
  %2 = alloca i64, align 8
  store i64 %0, ptr %2, align 8
  %3 = load i64, ptr %2, align 8
  %4 = trunc i64 %3 to i32
  ret i32 %4
}

; Function Attrs: nounwind uwtable
define dso_local i64 @pg_relation_filepath(ptr noundef %0) #0 {
  %2 = alloca i64, align 8
  %3 = alloca ptr, align 8
  %4 = alloca i32, align 4
  %5 = alloca ptr, align 8
  %6 = alloca ptr, align 8
  %7 = alloca %struct.RelFileLocator, align 4
  %8 = alloca i32, align 4
  %9 = alloca ptr, align 8
  %10 = alloca i32, align 4
  store ptr %0, ptr %3, align 8
  call void @llvm.lifetime.start.p0(i64 4, ptr %4) #10
  %11 = load ptr, ptr %3, align 8
  %12 = getelementptr inbounds nuw %struct.FunctionCallInfoBaseData, ptr %11, i32 0, i32 6
  %13 = getelementptr inbounds [0 x %struct.NullableDatum], ptr %12, i64 0, i64 0
  %14 = getelementptr inbounds nuw %struct.NullableDatum, ptr %13, i32 0, i32 0
  %15 = load i64, ptr %14, align 8
  %16 = call i32 @DatumGetObjectId(i64 noundef %15)
  store i32 %16, ptr %4, align 4
  call void @llvm.lifetime.start.p0(i64 8, ptr %5) #10
  call void @llvm.lifetime.start.p0(i64 8, ptr %6) #10
  call void @llvm.lifetime.start.p0(i64 12, ptr %7) #10
  call void @llvm.lifetime.start.p0(i64 4, ptr %8) #10
  call void @llvm.lifetime.start.p0(i64 8, ptr %9) #10
  %17 = load i32, ptr %4, align 4
  %18 = call i64 @ObjectIdGetDatum(i32 noundef %17)
  %19 = call ptr @SearchSysCache1(i32 noundef 57, i64 noundef %18)
  store ptr %19, ptr %5, align 8
  %20 = load ptr, ptr %5, align 8
  %21 = icmp ne ptr %20, null
  br i1 %21, label %28, label %22

22:                                               ; preds = %1
  br label %23

23:                                               ; preds = %22
  %24 = load ptr, ptr %3, align 8
  %25 = getelementptr inbounds nuw %struct.FunctionCallInfoBaseData, ptr %24, i32 0, i32 4
  store i8 1, ptr %25, align 4
  store i64 0, ptr %2, align 8
  store i32 1, ptr %10, align 4
  br label %170

26:                                               ; No predecessors!
  br label %27

27:                                               ; preds = %26
  br label %28

28:                                               ; preds = %27, %1
  %29 = load ptr, ptr %5, align 8
  %30 = call ptr @GETSTRUCT(ptr noundef %29)
  store ptr %30, ptr %6, align 8
  %31 = load ptr, ptr %6, align 8
  %32 = getelementptr inbounds nuw %struct.FormData_pg_class, ptr %31, i32 0, i32 16
  %33 = load i8, ptr %32, align 1
  %34 = sext i8 %33 to i32
  %35 = icmp eq i32 %34, 114
  br i1 %35, label %60, label %36

36:                                               ; preds = %28
  %37 = load ptr, ptr %6, align 8
  %38 = getelementptr inbounds nuw %struct.FormData_pg_class, ptr %37, i32 0, i32 16
  %39 = load i8, ptr %38, align 1
  %40 = sext i8 %39 to i32
  %41 = icmp eq i32 %40, 105
  br i1 %41, label %60, label %42

42:                                               ; preds = %36
  %43 = load ptr, ptr %6, align 8
  %44 = getelementptr inbounds nuw %struct.FormData_pg_class, ptr %43, i32 0, i32 16
  %45 = load i8, ptr %44, align 1
  %46 = sext i8 %45 to i32
  %47 = icmp eq i32 %46, 83
  br i1 %47, label %60, label %48

48:                                               ; preds = %42
  %49 = load ptr, ptr %6, align 8
  %50 = getelementptr inbounds nuw %struct.FormData_pg_class, ptr %49, i32 0, i32 16
  %51 = load i8, ptr %50, align 1
  %52 = sext i8 %51 to i32
  %53 = icmp eq i32 %52, 116
  br i1 %53, label %60, label %54

54:                                               ; preds = %48
  %55 = load ptr, ptr %6, align 8
  %56 = getelementptr inbounds nuw %struct.FormData_pg_class, ptr %55, i32 0, i32 16
  %57 = load i8, ptr %56, align 1
  %58 = sext i8 %57 to i32
  %59 = icmp eq i32 %58, 109
  br i1 %59, label %60, label %101

60:                                               ; preds = %54, %48, %42, %36, %28
  %61 = load ptr, ptr %6, align 8
  %62 = getelementptr inbounds nuw %struct.FormData_pg_class, ptr %61, i32 0, i32 8
  %63 = load i32, ptr %62, align 4
  %64 = icmp ne i32 %63, 0
  br i1 %64, label %65, label %70

65:                                               ; preds = %60
  %66 = load ptr, ptr %6, align 8
  %67 = getelementptr inbounds nuw %struct.FormData_pg_class, ptr %66, i32 0, i32 8
  %68 = load i32, ptr %67, align 4
  %69 = getelementptr inbounds nuw %struct.RelFileLocator, ptr %7, i32 0, i32 0
  store i32 %68, ptr %69, align 4
  br label %73

70:                                               ; preds = %60
  %71 = load i32, ptr @MyDatabaseTableSpace, align 4
  %72 = getelementptr inbounds nuw %struct.RelFileLocator, ptr %7, i32 0, i32 0
  store i32 %71, ptr %72, align 4
  br label %73

73:                                               ; preds = %70, %65
  %74 = getelementptr inbounds nuw %struct.RelFileLocator, ptr %7, i32 0, i32 0
  %75 = load i32, ptr %74, align 4
  %76 = icmp eq i32 %75, 1664
  br i1 %76, label %77, label %79

77:                                               ; preds = %73
  %78 = getelementptr inbounds nuw %struct.RelFileLocator, ptr %7, i32 0, i32 1
  store i32 0, ptr %78, align 4
  br label %82

79:                                               ; preds = %73
  %80 = load i32, ptr @MyDatabaseId, align 4
  %81 = getelementptr inbounds nuw %struct.RelFileLocator, ptr %7, i32 0, i32 1
  store i32 %80, ptr %81, align 4
  br label %82

82:                                               ; preds = %79, %77
  %83 = load ptr, ptr %6, align 8
  %84 = getelementptr inbounds nuw %struct.FormData_pg_class, ptr %83, i32 0, i32 7
  %85 = load i32, ptr %84, align 4
  %86 = icmp ne i32 %85, 0
  br i1 %86, label %87, label %92

87:                                               ; preds = %82
  %88 = load ptr, ptr %6, align 8
  %89 = getelementptr inbounds nuw %struct.FormData_pg_class, ptr %88, i32 0, i32 7
  %90 = load i32, ptr %89, align 4
  %91 = getelementptr inbounds nuw %struct.RelFileLocator, ptr %7, i32 0, i32 2
  store i32 %90, ptr %91, align 4
  br label %100

92:                                               ; preds = %82
  %93 = load i32, ptr %4, align 4
  %94 = load ptr, ptr %6, align 8
  %95 = getelementptr inbounds nuw %struct.FormData_pg_class, ptr %94, i32 0, i32 14
  %96 = load i8, ptr %95, align 1, !range !8, !noundef !9
  %97 = trunc i8 %96 to i1
  %98 = call i32 @RelationMapOidToFilenumber(i32 noundef %93, i1 noundef zeroext %97)
  %99 = getelementptr inbounds nuw %struct.RelFileLocator, ptr %7, i32 0, i32 2
  store i32 %98, ptr %99, align 4
  br label %100

100:                                              ; preds = %92, %87
  br label %105

101:                                              ; preds = %54
  %102 = getelementptr inbounds nuw %struct.RelFileLocator, ptr %7, i32 0, i32 2
  store i32 0, ptr %102, align 4
  %103 = getelementptr inbounds nuw %struct.RelFileLocator, ptr %7, i32 0, i32 1
  store i32 0, ptr %103, align 4
  %104 = getelementptr inbounds nuw %struct.RelFileLocator, ptr %7, i32 0, i32 0
  store i32 0, ptr %104, align 4
  br label %105

105:                                              ; preds = %101, %100
  %106 = getelementptr inbounds nuw %struct.RelFileLocator, ptr %7, i32 0, i32 2
  %107 = load i32, ptr %106, align 4
  %108 = icmp ne i32 %107, 0
  br i1 %108, label %116, label %109

109:                                              ; preds = %105
  %110 = load ptr, ptr %5, align 8
  call void @ReleaseSysCache(ptr noundef %110)
  br label %111

111:                                              ; preds = %109
  %112 = load ptr, ptr %3, align 8
  %113 = getelementptr inbounds nuw %struct.FunctionCallInfoBaseData, ptr %112, i32 0, i32 4
  store i8 1, ptr %113, align 4
  store i64 0, ptr %2, align 8
  store i32 1, ptr %10, align 4
  br label %170

114:                                              ; No predecessors!
  br label %115

115:                                              ; preds = %114
  br label %116

116:                                              ; preds = %115, %105
  %117 = load ptr, ptr %6, align 8
  %118 = getelementptr inbounds nuw %struct.FormData_pg_class, ptr %117, i32 0, i32 15
  %119 = load i8, ptr %118, align 2
  %120 = sext i8 %119 to i32
  switch i32 %120, label %142 [
    i32 117, label %121
    i32 112, label %121
    i32 116, label %122
  ]

121:                                              ; preds = %116, %116
  store i32 -1, ptr %8, align 4
  br label %157

122:                                              ; preds = %116
  %123 = load ptr, ptr %6, align 8
  %124 = getelementptr inbounds nuw %struct.FormData_pg_class, ptr %123, i32 0, i32 2
  %125 = load i32, ptr %124, align 4
  %126 = call zeroext i1 @isTempOrTempToastNamespace(i32 noundef %125)
  br i1 %126, label %127, label %136

127:                                              ; preds = %122
  %128 = load i32, ptr @ParallelLeaderProcNumber, align 4
  %129 = icmp eq i32 %128, -1
  br i1 %129, label %130, label %132

130:                                              ; preds = %127
  %131 = load i32, ptr @MyProcNumber, align 4
  br label %134

132:                                              ; preds = %127
  %133 = load i32, ptr @ParallelLeaderProcNumber, align 4
  br label %134

134:                                              ; preds = %132, %130
  %135 = phi i32 [ %131, %130 ], [ %133, %132 ]
  store i32 %135, ptr %8, align 4
  br label %141

136:                                              ; preds = %122
  %137 = load ptr, ptr %6, align 8
  %138 = getelementptr inbounds nuw %struct.FormData_pg_class, ptr %137, i32 0, i32 2
  %139 = load i32, ptr %138, align 4
  %140 = call i32 @GetTempNamespaceProcNumber(i32 noundef %139)
  store i32 %140, ptr %8, align 4
  br label %141

141:                                              ; preds = %136, %134
  br label %157

142:                                              ; preds = %116
  br label %143

143:                                              ; preds = %142
  br i1 true, label %144, label %146

144:                                              ; preds = %143
  %145 = call zeroext i1 @errstart_cold(i32 noundef 21, ptr noundef null) #11
  br i1 %145, label %148, label %154

146:                                              ; preds = %143
  %147 = call zeroext i1 @errstart(i32 noundef 21, ptr noundef null)
  br i1 %147, label %148, label %154

148:                                              ; preds = %146, %144
  %149 = load ptr, ptr %6, align 8
  %150 = getelementptr inbounds nuw %struct.FormData_pg_class, ptr %149, i32 0, i32 15
  %151 = load i8, ptr %150, align 2
  %152 = sext i8 %151 to i32
  %153 = call i32 (ptr, ...) @errmsg_internal(ptr noundef @.str.8, i32 noundef %152)
  call void @errfinish(ptr noundef @.str.1, i32 noundef 1033, ptr noundef @__func__.pg_relation_filepath)
  br label %154

154:                                              ; preds = %148, %146, %144
  unreachable

155:                                              ; No predecessors!
  br label %156

156:                                              ; preds = %155
  store i32 -1, ptr %8, align 4
  br label %157

157:                                              ; preds = %156, %141, %121
  %158 = load ptr, ptr %5, align 8
  call void @ReleaseSysCache(ptr noundef %158)
  %159 = getelementptr inbounds nuw %struct.RelFileLocator, ptr %7, i32 0, i32 1
  %160 = load i32, ptr %159, align 4
  %161 = getelementptr inbounds nuw %struct.RelFileLocator, ptr %7, i32 0, i32 0
  %162 = load i32, ptr %161, align 4
  %163 = getelementptr inbounds nuw %struct.RelFileLocator, ptr %7, i32 0, i32 2
  %164 = load i32, ptr %163, align 4
  %165 = load i32, ptr %8, align 4
  %166 = call ptr @GetRelationPath(i32 noundef %160, i32 noundef %162, i32 noundef %164, i32 noundef %165, i32 noundef 0)
  store ptr %166, ptr %9, align 8
  %167 = load ptr, ptr %9, align 8
  %168 = call ptr @cstring_to_text(ptr noundef %167)
  %169 = call i64 @PointerGetDatum(ptr noundef %168)
  store i64 %169, ptr %2, align 8
  store i32 1, ptr %10, align 4
  br label %170

170:                                              ; preds = %157, %111, %23
  call void @llvm.lifetime.end.p0(i64 8, ptr %9) #10
  call void @llvm.lifetime.end.p0(i64 4, ptr %8) #10
  call void @llvm.lifetime.end.p0(i64 12, ptr %7) #10
  call void @llvm.lifetime.end.p0(i64 8, ptr %6) #10
  call void @llvm.lifetime.end.p0(i64 8, ptr %5) #10
  call void @llvm.lifetime.end.p0(i64 4, ptr %4) #10
  %171 = load i64, ptr %2, align 8
  ret i64 %171
}