; Function Attrs: nounwind uwtable
define dso_local i64 @pg_relation_filepath(ptr noundef captures(none) %0) local_unnamed_addr #0 {
  %2 = getelementptr inbounds nuw i8, ptr %0, i64 32
  %3 = load i64, ptr %2, align 8
  %4 = trunc i64 %3 to i32
  %5 = and i64 %3, 4294967295
  %6 = tail call ptr @SearchSysCache1(i32 noundef 57, i64 noundef %5) #9
  %.not = icmp eq ptr %6, null
  br i1 %.not, label %7, label %9

7:                                                ; preds = %1
  %8 = getelementptr inbounds nuw i8, ptr %0, i64 28
  store i8 1, ptr %8, align 4
  br label %54

9:                                                ; preds = %1
  %10 = getelementptr i8, ptr %6, i64 16
  %.val = load ptr, ptr %10, align 8
  %11 = getelementptr inbounds nuw i8, ptr %.val, i64 22
  %12 = load i8, ptr %11, align 2
  %13 = zext i8 %12 to i64
  %14 = getelementptr inbounds nuw i8, ptr %.val, i64 %13
  %15 = getelementptr inbounds nuw i8, ptr %14, i64 115
  %16 = load i8, ptr %15, align 1
  switch i8 %16, label %.thread [
    i8 114, label %17
    i8 105, label %17
    i8 83, label %17
    i8 116, label %17
    i8 109, label %17
  ]

17:                                               ; preds = %9, %9, %9, %9, %9
  %18 = getelementptr inbounds nuw i8, ptr %14, i64 92
  %19 = load i32, ptr %18, align 4
  %.not32 = icmp eq i32 %19, 0
  %20 = load i32, ptr @MyDatabaseTableSpace, align 4
  %.sroa.0.0 = select i1 %.not32, i32 %20, i32 %19
  %21 = icmp eq i32 %.sroa.0.0, 1664
  %22 = load i32, ptr @MyDatabaseId, align 4
  %.sroa.7.0 = select i1 %21, i32 0, i32 %22
  %23 = getelementptr inbounds nuw i8, ptr %14, i64 88
  %24 = load i32, ptr %23, align 4
  %.not33 = icmp eq i32 %24, 0
  br i1 %.not33, label %25, label %.thread39

25:                                               ; preds = %17
  %26 = getelementptr inbounds nuw i8, ptr %14, i64 113
  %27 = load i8, ptr %26, align 1, !range !11, !noundef !12
  %28 = trunc nuw i8 %27 to i1
  %29 = tail call i32 @RelationMapOidToFilenumber(i32 noundef %4, i1 noundef zeroext %28) #9
  %.not34 = icmp eq i32 %29, 0
  br i1 %.not34, label %.thread, label %.thread39

.thread:                                          ; preds = %9, %25
  tail call void @ReleaseSysCache(ptr noundef nonnull %6) #9
  %30 = getelementptr inbounds nuw i8, ptr %0, i64 28
  store i8 1, ptr %30, align 4
  br label %54

.thread39:                                        ; preds = %17, %25
  %.sroa.11.044 = phi i32 [ %29, %25 ], [ %24, %17 ]
  %31 = getelementptr inbounds nuw i8, ptr %14, i64 114
  %32 = load i8, ptr %31, align 2
  switch i8 %32, label %45 [
    i8 117, label %50
    i8 112, label %50
    i8 116, label %33
  ]

33:                                               ; preds = %.thread39
  %34 = getelementptr inbounds nuw i8, ptr %14, i64 68
  %35 = load i32, ptr %34, align 4
  %36 = tail call zeroext i1 @isTempOrTempToastNamespace(i32 noundef %35) #9
  br i1 %36, label %37, label %42

37:                                               ; preds = %33
  %38 = load i32, ptr @ParallelLeaderProcNumber, align 4
  %39 = icmp eq i32 %38, -1
  %40 = load i32, ptr @MyProcNumber, align 4
  %41 = select i1 %39, i32 %40, i32 %38
  br label %50

42:                                               ; preds = %33
  %43 = load i32, ptr %34, align 4
  %44 = tail call i32 @GetTempNamespaceProcNumber(i32 noundef %43) #9
  br label %50

45:                                               ; preds = %.thread39
  %46 = tail call zeroext i1 @errstart_cold(i32 noundef 21, ptr noundef null) #10
  tail call void @llvm.assume(i1 %46)
  %47 = load i8, ptr %31, align 2
  %48 = sext i8 %47 to i32
  %49 = tail call i32 (ptr, ...) @errmsg_internal(ptr noundef nonnull @.str.8, i32 noundef %48) #9
  tail call void @errfinish(ptr noundef nonnull @.str.1, i32 noundef 1033, ptr noundef nonnull @__func__.pg_relation_filepath) #9
  unreachable

50:                                               ; preds = %.thread39, %.thread39, %37, %42
  %.027 = phi i32 [ %41, %37 ], [ %44, %42 ], [ -1, %.thread39 ], [ -1, %.thread39 ]
  tail call void @ReleaseSysCache(ptr noundef nonnull %6) #9
  %51 = tail call ptr @GetRelationPath(i32 noundef %.sroa.7.0, i32 noundef %.sroa.0.0, i32 noundef %.sroa.11.044, i32 noundef %.027, i32 noundef 0) #9
  %52 = tail call ptr @cstring_to_text(ptr noundef %51) #9
  %53 = ptrtoint ptr %52 to i64
  br label %54

54:                                               ; preds = %50, %.thread, %7
  %.0 = phi i64 [ %53, %50 ], [ 0, %.thread ], [ 0, %7 ]
  ret i64 %.0
}